target datalayout = "e-m:e-p270:32:32-p271:32:32-p272:64:64-i64:64-i128:128-f80:128-n8:16:32:64-S128"
target triple = "x86_64-pc-linux-gnu"

%union.SourceSpan = type { i64 }
%struct.Vmem = type { ptr, i64, i64 }
%struct.Signature_ = type <{ %struct.CalleeAttributes, i16, i8, i32, i32, [4 x i8], ptr }>
%struct.CalleeAttributes = type { i8 }
%struct.Decl_ = type { ptr, ptr, %union.SourceSpan, i64, %union.anon, i32, %union.anon.0, i64, ptr, ptr, ptr, %union.anon.1 }
%union.anon = type { ptr }
%union.anon.0 = type { i16 }
%union.anon.1 = type { %struct.FuncDecl }
%struct.FuncDecl = type { i32, [4 x i8], %struct.Signature_, i32, i32, %union.anon.8 }
%union.anon.8 = type { %struct.anon.9 }
%struct.anon.9 = type { i16, %union.anon.10 }
%union.anon.10 = type { ptr }
%struct.VHeader_ = type { i32, i32, [0 x i8] }
%struct.TypeInfo_ = type { i16, ptr, %union.SourceSpan, %union.anon.56 }
%union.anon.56 = type { %struct.anon.57 }
%struct.anon.57 = type { ptr, ptr }
%struct.VarDecl_ = type { i32, i32, %union.anon.14, %union.anon.15 }
%union.anon.14 = type { ptr }
%union.anon.15 = type { %struct.anon.16 }
%struct.anon.16 = type { ptr, %union.SourceSpan }

@type_info_arena = external global %struct.Vmem, align 8
@.str.197 = private unnamed_addr constant [43 x i8] c"Too many parameters, '%s' expects only %u.\00", align 1
@.str.198 = private unnamed_addr constant [41 x i8] c"Not enough parameters, '%s' requires %u.\00", align 1
@.str.199 = private unnamed_addr constant [52 x i8] c"The return value must be explicitly typed for '%s'.\00", align 1
@.str.200 = private unnamed_addr constant [50 x i8] c"All parameters must be explicitly typed for '%s'.\00", align 1

; Function Attrs: nounwind uwtable
define internal ptr @type_infoptr(i32 noundef %0) #0 {
  %2 = alloca i32, align 4
  store i32 %0, ptr %2, align 4
  %3 = load ptr, ptr @type_info_arena, align 8
  %4 = load i32, ptr %2, align 4
  %5 = zext i32 %4 to i64
  %6 = getelementptr inbounds %struct.TypeInfo_, ptr %3, i64 %5
  ret ptr %6
}

; Function Attrs: nounwind uwtable
define internal zeroext i1 @sema_analyse_operator_common(ptr noundef %0, ptr noundef %1, ptr noundef %2, i32 noundef %3) #0 {
  %5 = alloca i32, align 4
  %6 = alloca ptr, align 8
  %7 = alloca ptr, align 8
  %8 = alloca i32, align 4
  %9 = alloca ptr, align 8
  %10 = alloca ptr, align 8
  %11 = alloca i1, align 1
  %12 = alloca ptr, align 8
  %13 = alloca ptr, align 8
  %14 = alloca ptr, align 8
  %15 = alloca i32, align 4
  %16 = alloca ptr, align 8
  %17 = alloca ptr, align 8
  %18 = alloca i32, align 4
  %19 = alloca i32, align 4
  %20 = alloca i32, align 4
  %21 = alloca ptr, align 8
  store ptr %0, ptr %12, align 8
  store ptr %1, ptr %13, align 8
  store ptr %2, ptr %14, align 8
  store i32 %3, ptr %15, align 4
  %22 = load ptr, ptr %12, align 8
  %23 = getelementptr inbounds %struct.Decl_, ptr %22, i32 0, i32 11
  %24 = getelementptr inbounds %struct.FuncDecl, ptr %23, i32 0, i32 2
  store ptr %24, ptr %16, align 8
  %25 = load ptr, ptr %16, align 8
  %26 = getelementptr inbounds %struct.Signature_, ptr %25, i32 0, i32 6
  %27 = load ptr, ptr %26, align 8
  %28 = load ptr, ptr %14, align 8
  store ptr %27, ptr %28, align 8
  store ptr %27, ptr %17, align 8
  %29 = load ptr, ptr %17, align 8
  store ptr %29, ptr %6, align 8
  %30 = load ptr, ptr %6, align 8
  %31 = icmp ne ptr %30, null
  br i1 %31, label %33, label %32

32:                                               ; preds = %4
  store i32 0, ptr %5, align 4
  br label %38

33:                                               ; preds = %4
  %34 = load ptr, ptr %6, align 8
  store ptr %34, ptr %7, align 8
  %35 = load ptr, ptr %7, align 8
  %36 = getelementptr inbounds %struct.VHeader_, ptr %35, i64 -1
  %37 = load i32, ptr %36, align 4
  store i32 %37, ptr %5, align 4
  br label %38

38:                                               ; preds = %33, %32
  %39 = load i32, ptr %5, align 4
  store i32 %39, ptr %18, align 4
  %40 = load i32, ptr %18, align 4
  %41 = load i32, ptr %15, align 4
  %42 = icmp ugt i32 %40, %41
  br i1 %42, label %43, label %56

43:                                               ; preds = %38
  %44 = load ptr, ptr %17, align 8
  %45 = load i32, ptr %15, align 4
  %46 = zext i32 %45 to i64
  %47 = getelementptr inbounds ptr, ptr %44, i64 %46
  %48 = load ptr, ptr %47, align 8
  %49 = getelementptr inbounds %struct.Decl_, ptr %48, i32 0, i32 2
  %50 = load ptr, ptr %12, align 8
  %51 = getelementptr inbounds %struct.Decl_, ptr %50, i32 0, i32 0
  %52 = load ptr, ptr %51, align 8
  %53 = load i32, ptr %15, align 4
  %54 = getelementptr inbounds %union.SourceSpan, ptr %49, i32 0, i32 0
  %55 = load i64, ptr %54, align 8
  call void (i64, ptr, ...) @sema_error_at(i64 %55, ptr noundef @.str.197, ptr noundef %52, i32 noundef %53)
  store i1 false, ptr %11, align 1
  br label %131

56:                                               ; preds = %38
  %57 = load i32, ptr %18, align 4
  %58 = load i32, ptr %15, align 4
  %59 = icmp ult i32 %57, %58
  br i1 %59, label %60, label %69

60:                                               ; preds = %56
  %61 = load ptr, ptr %12, align 8
  %62 = getelementptr inbounds %struct.Decl_, ptr %61, i32 0, i32 2
  %63 = load ptr, ptr %12, align 8
  %64 = getelementptr inbounds %struct.Decl_, ptr %63, i32 0, i32 0
  %65 = load ptr, ptr %64, align 8
  %66 = load i32, ptr %15, align 4
  %67 = getelementptr inbounds %union.SourceSpan, ptr %62, i32 0, i32 0
  %68 = load i64, ptr %67, align 8
  call void (i64, ptr, ...) @sema_error_at(i64 %68, ptr noundef @.str.198, ptr noundef %65, i32 noundef %66)
  store i1 false, ptr %11, align 1
  br label %131

69:                                               ; preds = %56
  %70 = load ptr, ptr %16, align 8
  %71 = getelementptr inbounds %struct.Signature_, ptr %70, i32 0, i32 4
  %72 = load i32, ptr %71, align 8
  %73 = icmp ne i32 %72, 0
  br i1 %73, label %82, label %74

74:                                               ; preds = %69
  %75 = load ptr, ptr %12, align 8
  %76 = getelementptr inbounds %struct.Decl_, ptr %75, i32 0, i32 2
  %77 = load ptr, ptr %12, align 8
  %78 = getelementptr inbounds %struct.Decl_, ptr %77, i32 0, i32 0
  %79 = load ptr, ptr %78, align 8
  %80 = getelementptr inbounds %union.SourceSpan, ptr %76, i32 0, i32 0
  %81 = load i64, ptr %80, align 8
  call void (i64, ptr, ...) @sema_error_at(i64 %81, ptr noundef @.str.199, ptr noundef %79)
  store i1 false, ptr %11, align 1
  br label %131

82:                                               ; preds = %69
  store i32 0, ptr %19, align 4
  %83 = load ptr, ptr %17, align 8
  store ptr %83, ptr %9, align 8
  %84 = load ptr, ptr %9, align 8
  %85 = icmp ne ptr %84, null
  br i1 %85, label %87, label %86

86:                                               ; preds = %82
  store i32 0, ptr %8, align 4
  br label %92

87:                                               ; preds = %82
  %88 = load ptr, ptr %9, align 8
  store ptr %88, ptr %10, align 8
  %89 = load ptr, ptr %10, align 8
  %90 = getelementptr inbounds %struct.VHeader_, ptr %89, i64 -1
  %91 = load i32, ptr %90, align 4
  store i32 %91, ptr %8, align 4
  br label %92

92:                                               ; preds = %87, %86
  %93 = load i32, ptr %8, align 4
  store i32 %93, ptr %20, align 4
  br label %94

94:                                               ; preds = %122, %92
  %95 = load i32, ptr %19, align 4
  %96 = load i32, ptr %20, align 4
  %97 = icmp ult i32 %95, %96
  br i1 %97, label %98, label %125

98:                                               ; preds = %94
  %99 = load ptr, ptr %17, align 8
  %100 = load i32, ptr %19, align 4
  %101 = zext i32 %100 to i64
  %102 = getelementptr inbounds ptr, ptr %99, i64 %101
  %103 = load ptr, ptr %102, align 8
  store ptr %103, ptr %21, align 8
  %104 = load ptr, ptr %17, align 8
  %105 = load i32, ptr %19, align 4
  %106 = zext i32 %105 to i64
  %107 = getelementptr inbounds ptr, ptr %104, i64 %106
  %108 = load ptr, ptr %107, align 8
  %109 = getelementptr inbounds %struct.Decl_, ptr %108, i32 0, i32 11
  %110 = getelementptr inbounds %struct.VarDecl_, ptr %109, i32 0, i32 1
  %111 = load i32, ptr %110, align 4
  %112 = icmp ne i32 %111, 0
  br i1 %112, label %121, label %113

113:                                              ; preds = %98
  %114 = load ptr, ptr %21, align 8
  %115 = getelementptr inbounds %struct.Decl_, ptr %114, i32 0, i32 2
  %116 = load ptr, ptr %12, align 8
  %117 = getelementptr inbounds %struct.Decl_, ptr %116, i32 0, i32 0
  %118 = load ptr, ptr %117, align 8
  %119 = getelementptr inbounds %union.SourceSpan, ptr %115, i32 0, i32 0
  %120 = load i64, ptr %119, align 8
  call void (i64, ptr, ...) @sema_error_at(i64 %120, ptr noundef @.str.200, ptr noundef %118)
  store i1 false, ptr %11, align 1
  br label %131

121:                                              ; preds = %98
  br label %122

122:                                              ; preds = %121
  %123 = load i32, ptr %19, align 4
  %124 = add i32 %123, 1
  store i32 %124, ptr %19, align 4
  br label %94, !llvm.loop !52

125:                                              ; preds = %94
  %126 = load ptr, ptr %16, align 8
  %127 = getelementptr inbounds %struct.Signature_, ptr %126, i32 0, i32 4
  %128 = load i32, ptr %127, align 8
  %129 = call ptr @type_infoptr(i32 noundef %128)
  %130 = load ptr, ptr %13, align 8
  store ptr %129, ptr %130, align 8
  store i1 true, ptr %11, align 1
  br label %131

131:                                              ; preds = %125, %113, %74, %60, %43
  %132 = load i1, ptr %11, align 1
  ret i1 %132
}