; Function Attrs: nounwind uwtable
define internal fastcc noundef zeroext i1 @sema_analyse_operator_common(ptr nocapture noundef readonly %0, ptr nocapture noundef writeonly %1, ptr nocapture noundef writeonly %2, i32 noundef %3) unnamed_addr #0 {
  %5 = getelementptr inbounds i8, ptr %0, i64 104
  %6 = load ptr, ptr %5, align 8
  store ptr %6, ptr %2, align 8
  %.not = icmp eq ptr %6, null
  br i1 %.not, label %.thread, label %7

7:                                                ; preds = %4
  %8 = getelementptr inbounds i8, ptr %6, i64 -8
  %9 = load i32, ptr %8, align 4
  %10 = icmp ugt i32 %9, %3
  br i1 %10, label %11, label %.thread

11:                                               ; preds = %7
  %12 = zext nneg i32 %3 to i64
  %13 = getelementptr inbounds ptr, ptr %6, i64 %12
  %14 = load ptr, ptr %13, align 8
  %15 = getelementptr inbounds i8, ptr %14, i64 16
  %16 = load ptr, ptr %0, align 8
  %17 = load i64, ptr %15, align 8
  tail call void (i64, ptr, ...) @sema_error_at(i64 %17, ptr noundef nonnull @.str.197, ptr noundef %16, i32 noundef %3) #10
  br label %46

.thread:                                          ; preds = %4, %7
  %.047 = phi i32 [ %9, %7 ], [ 0, %4 ]
  %18 = icmp ult i32 %.047, %3
  br i1 %18, label %19, label %23

19:                                               ; preds = %.thread
  %20 = getelementptr inbounds i8, ptr %0, i64 16
  %21 = load ptr, ptr %0, align 8
  %22 = load i64, ptr %20, align 8
  tail call void (i64, ptr, ...) @sema_error_at(i64 %22, ptr noundef nonnull @.str.198, ptr noundef %21, i32 noundef %3) #10
  br label %46

23:                                               ; preds = %.thread
  %24 = getelementptr inbounds i8, ptr %0, i64 96
  %25 = load i32, ptr %24, align 8
  %.not44 = icmp eq i32 %25, 0
  br i1 %.not44, label %26, label %30

26:                                               ; preds = %23
  %27 = getelementptr inbounds i8, ptr %0, i64 16
  %28 = load ptr, ptr %0, align 8
  %29 = load i64, ptr %27, align 8
  tail call void (i64, ptr, ...) @sema_error_at(i64 %29, ptr noundef nonnull @.str.199, ptr noundef %28) #10
  br label %46

30:                                               ; preds = %23
  br i1 %.not, label %._crit_edge, label %31

31:                                               ; preds = %30
  %32 = getelementptr inbounds i8, ptr %6, i64 -8
  %33 = load i32, ptr %32, align 4
  %.not49 = icmp eq i32 %33, 0
  br i1 %.not49, label %._crit_edge, label %.lr.ph.preheader

.lr.ph.preheader:                                 ; preds = %31
  %wide.trip.count = zext i32 %33 to i64
  br label %.lr.ph

34:                                               ; preds = %.lr.ph
  %indvars.iv.next = add nuw nsw i64 %indvars.iv, 1
  %exitcond.not = icmp eq i64 %indvars.iv.next, %wide.trip.count
  br i1 %exitcond.not, label %._crit_edge, label %.lr.ph, !llvm.loop !52

.lr.ph:                                           ; preds = %.lr.ph.preheader, %34
  %indvars.iv = phi i64 [ 0, %.lr.ph.preheader ], [ %indvars.iv.next, %34 ]
  %35 = getelementptr inbounds ptr, ptr %6, i64 %indvars.iv
  %36 = load ptr, ptr %35, align 8
  %37 = getelementptr inbounds i8, ptr %36, i64 84
  %38 = load i32, ptr %37, align 4
  %.not45 = icmp eq i32 %38, 0
  br i1 %.not45, label %39, label %34

39:                                               ; preds = %.lr.ph
  %40 = getelementptr inbounds i8, ptr %36, i64 16
  %41 = load ptr, ptr %0, align 8
  %42 = load i64, ptr %40, align 8
  tail call void (i64, ptr, ...) @sema_error_at(i64 %42, ptr noundef nonnull @.str.200, ptr noundef %41) #10
  br label %46

._crit_edge:                                      ; preds = %34, %30, %31
  %43 = load ptr, ptr @type_info_arena, align 8
  %44 = zext i32 %25 to i64
  %45 = getelementptr inbounds %struct.TypeInfo_, ptr %43, i64 %44
  store ptr %45, ptr %1, align 8
  br label %46

46:                                               ; preds = %._crit_edge, %39, %26, %19, %11
  %.040 = phi i1 [ false, %11 ], [ false, %19 ], [ false, %39 ], [ true, %._crit_edge ], [ false, %26 ]
  ret i1 %.040
}